; ModuleID = '2/267.c'
source_filename = "2/267.c"
target datalayout = "e-m:e-p270:32:32-p271:32:32-p272:64:64-i64:64-f80:128-n8:16:32:64-S128"
target triple = "x86_64-pc-linux-gnu"

%struct.book = type { i32, [27 x i8] }

@.str = private unnamed_addr constant [3 x i8] c"%d\00", align 1
@.str.1 = private unnamed_addr constant [3 x i8] c"%s\00", align 1
@.str.2 = private unnamed_addr constant [4 x i8] c"%c\0A\00", align 1
@.str.3 = private unnamed_addr constant [4 x i8] c"%d\0A\00", align 1

; Function Attrs: noinline nounwind uwtable
define dso_local void @main() #0 {
  %1 = alloca i32, align 4
  %2 = alloca i32, align 4
  %3 = alloca i32, align 4
  %4 = alloca i32, align 4
  %5 = alloca i32, align 4
  %6 = alloca i32, align 4
  %7 = alloca [1000 x i32], align 16
  %8 = alloca [1000 x %struct.book], align 16
  %9 = call i32 (i8*, ...) @__isoc99_scanf(i8* getelementptr inbounds ([3 x i8], [3 x i8]* @.str, i64 0, i64 0), i32* %1)
  store i32 0, i32* %2, align 4
  br label %10

10:                                               ; preds = %26, %0
  %11 = load i32, i32* %2, align 4
  %12 = load i32, i32* %1, align 4
  %13 = icmp slt i32 %11, %12
  br i1 %13, label %14, label %29

14:                                               ; preds = %10
  %15 = load i32, i32* %2, align 4
  %16 = sext i32 %15 to i64
  %17 = getelementptr inbounds [1000 x %struct.book], [1000 x %struct.book]* %8, i64 0, i64 %16
  %18 = getelementptr inbounds %struct.book, %struct.book* %17, i32 0, i32 0
  %19 = call i32 (i8*, ...) @__isoc99_scanf(i8* getelementptr inbounds ([3 x i8], [3 x i8]* @.str, i64 0, i64 0), i32* %18)
  %20 = load i32, i32* %2, align 4
  %21 = sext i32 %20 to i64
  %22 = getelementptr inbounds [1000 x %struct.book], [1000 x %struct.book]* %8, i64 0, i64 %21
  %23 = getelementptr inbounds %struct.book, %struct.book* %22, i32 0, i32 1
  %24 = getelementptr inbounds [27 x i8], [27 x i8]* %23, i64 0, i64 0
  %25 = call i32 (i8*, ...) @__isoc99_scanf(i8* getelementptr inbounds ([3 x i8], [3 x i8]* @.str.1, i64 0, i64 0), i8* %24)
  br label %26

26:                                               ; preds = %14
  %27 = load i32, i32* %2, align 4
  %28 = add nsw i32 %27, 1
  store i32 %28, i32* %2, align 4
  br label %10

29:                                               ; preds = %10
  store i32 0, i32* %2, align 4
  br label %30

30:                                               ; preds = %37, %29
  %31 = load i32, i32* %2, align 4
  %32 = icmp slt i32 %31, 26
  br i1 %32, label %33, label %40

33:                                               ; preds = %30
  %34 = load i32, i32* %2, align 4
  %35 = sext i32 %34 to i64
  %36 = getelementptr inbounds [1000 x i32], [1000 x i32]* %7, i64 0, i64 %35
  store i32 0, i32* %36, align 4
  br label %37

37:                                               ; preds = %33
  %38 = load i32, i32* %2, align 4
  %39 = add nsw i32 %38, 1
  store i32 %39, i32* %2, align 4
  br label %30

40:                                               ; preds = %30
  store i32 0, i32* %2, align 4
  br label %41

41:                                               ; preds = %76, %40
  %42 = load i32, i32* %2, align 4
  %43 = load i32, i32* %1, align 4
  %44 = icmp slt i32 %42, %43
  br i1 %44, label %45, label %79

45:                                               ; preds = %41
  %46 = load i32, i32* %2, align 4
  %47 = sext i32 %46 to i64
  %48 = getelementptr inbounds [1000 x %struct.book], [1000 x %struct.book]* %8, i64 0, i64 %47
  %49 = getelementptr inbounds %struct.book, %struct.book* %48, i32 0, i32 1
  %50 = getelementptr inbounds [27 x i8], [27 x i8]* %49, i64 0, i64 0
  %51 = call i64 @strlen(i8* %50) #3
  %52 = trunc i64 %51 to i32
  store i32 %52, i32* %4, align 4
  store i32 0, i32* %3, align 4
  br label %53

53:                                               ; preds = %72, %45
  %54 = load i32, i32* %3, align 4
  %55 = load i32, i32* %4, align 4
  %56 = icmp slt i32 %54, %55
  br i1 %56, label %57, label %75

57:                                               ; preds = %53
  %58 = load i32, i32* %2, align 4
  %59 = sext i32 %58 to i64
  %60 = getelementptr inbounds [1000 x %struct.book], [1000 x %struct.book]* %8, i64 0, i64 %59
  %61 = getelementptr inbounds %struct.book, %struct.book* %60, i32 0, i32 1
  %62 = load i32, i32* %3, align 4
  %63 = sext i32 %62 to i64
  %64 = getelementptr inbounds [27 x i8], [27 x i8]* %61, i64 0, i64 %63
  %65 = load i8, i8* %64, align 1
  %66 = sext i8 %65 to i32
  %67 = sub nsw i32 %66, 65
  %68 = sext i32 %67 to i64
  %69 = getelementptr inbounds [1000 x i32], [1000 x i32]* %7, i64 0, i64 %68
  %70 = load i32, i32* %69, align 4
  %71 = add nsw i32 %70, 1
  store i32 %71, i32* %69, align 4
  br label %72

72:                                               ; preds = %57
  %73 = load i32, i32* %3, align 4
  %74 = add nsw i32 %73, 1
  store i32 %74, i32* %3, align 4
  br label %53

75:                                               ; preds = %53
  br label %76

76:                                               ; preds = %75
  %77 = load i32, i32* %2, align 4
  %78 = add nsw i32 %77, 1
  store i32 %78, i32* %2, align 4
  br label %41

79:                                               ; preds = %41
  %80 = getelementptr inbounds [1000 x i32], [1000 x i32]* %7, i64 0, i64 0
  %81 = load i32, i32* %80, align 16
  store i32 %81, i32* %5, align 4
  store i32 0, i32* %2, align 4
  br label %82

82:                                               ; preds = %98, %79
  %83 = load i32, i32* %2, align 4
  %84 = icmp slt i32 %83, 26
  br i1 %84, label %85, label %101

85:                                               ; preds = %82
  %86 = load i32, i32* %2, align 4
  %87 = sext i32 %86 to i64
  %88 = getelementptr inbounds [1000 x i32], [1000 x i32]* %7, i64 0, i64 %87
  %89 = load i32, i32* %88, align 4
  %90 = load i32, i32* %5, align 4
  %91 = icmp sgt i32 %89, %90
  br i1 %91, label %92, label %97

92:                                               ; preds = %85
  %93 = load i32, i32* %2, align 4
  %94 = sext i32 %93 to i64
  %95 = getelementptr inbounds [1000 x i32], [1000 x i32]* %7, i64 0, i64 %94
  %96 = load i32, i32* %95, align 4
  store i32 %96, i32* %5, align 4
  br label %97

97:                                               ; preds = %92, %85
  br label %98

98:                                               ; preds = %97
  %99 = load i32, i32* %2, align 4
  %100 = add nsw i32 %99, 1
  store i32 %100, i32* %2, align 4
  br label %82

101:                                              ; preds = %82
  store i32 0, i32* %2, align 4
  br label %102

102:                                              ; preds = %115, %101
  %103 = load i32, i32* %2, align 4
  %104 = icmp slt i32 %103, 26
  br i1 %104, label %105, label %118

105:                                              ; preds = %102
  %106 = load i32, i32* %5, align 4
  %107 = load i32, i32* %2, align 4
  %108 = sext i32 %107 to i64
  %109 = getelementptr inbounds [1000 x i32], [1000 x i32]* %7, i64 0, i64 %108
  %110 = load i32, i32* %109, align 4
  %111 = icmp eq i32 %106, %110
  br i1 %111, label %112, label %114

112:                                              ; preds = %105
  %113 = load i32, i32* %2, align 4
  store i32 %113, i32* %6, align 4
  br label %114

114:                                              ; preds = %112, %105
  br label %115

115:                                              ; preds = %114
  %116 = load i32, i32* %2, align 4
  %117 = add nsw i32 %116, 1
  store i32 %117, i32* %2, align 4
  br label %102

118:                                              ; preds = %102
  %119 = load i32, i32* %6, align 4
  %120 = add nsw i32 %119, 65
  store i32 %120, i32* %6, align 4
  %121 = load i32, i32* %6, align 4
  %122 = call i32 (i8*, ...) @printf(i8* getelementptr inbounds ([4 x i8], [4 x i8]* @.str.2, i64 0, i64 0), i32 %121)
  %123 = load i32, i32* %5, align 4
  %124 = call i32 (i8*, ...) @printf(i8* getelementptr inbounds ([4 x i8], [4 x i8]* @.str.3, i64 0, i64 0), i32 %123)
  store i32 0, i32* %2, align 4
  br label %125

125:                                              ; preds = %165, %118
  %126 = load i32, i32* %2, align 4
  %127 = load i32, i32* %1, align 4
  %128 = icmp slt i32 %126, %127
  br i1 %128, label %129, label %168

129:                                              ; preds = %125
  %130 = load i32, i32* %2, align 4
  %131 = sext i32 %130 to i64
  %132 = getelementptr inbounds [1000 x %struct.book], [1000 x %struct.book]* %8, i64 0, i64 %131
  %133 = getelementptr inbounds %struct.book, %struct.book* %132, i32 0, i32 1
  %134 = getelementptr inbounds [27 x i8], [27 x i8]* %133, i64 0, i64 0
  %135 = call i64 @strlen(i8* %134) #3
  %136 = trunc i64 %135 to i32
  store i32 %136, i32* %4, align 4
  store i32 0, i32* %3, align 4
  br label %137

137:                                              ; preds = %161, %129
  %138 = load i32, i32* %3, align 4
  %139 = load i32, i32* %4, align 4
  %140 = icmp slt i32 %138, %139
  br i1 %140, label %141, label %164

141:                                              ; preds = %137
  %142 = load i32, i32* %2, align 4
  %143 = sext i32 %142 to i64
  %144 = getelementptr inbounds [1000 x %struct.book], [1000 x %struct.book]* %8, i64 0, i64 %143
  %145 = getelementptr inbounds %struct.book, %struct.book* %144, i32 0, i32 1
  %146 = load i32, i32* %3, align 4
  %147 = sext i32 %146 to i64
  %148 = getelementptr inbounds [27 x i8], [27 x i8]* %145, i64 0, i64 %147
  %149 = load i8, i8* %148, align 1
  %150 = sext i8 %149 to i32
  %151 = load i32, i32* %6, align 4
  %152 = icmp eq i32 %150, %151
  br i1 %152, label %153, label %160

153:                                              ; preds = %141
  %154 = load i32, i32* %2, align 4
  %155 = sext i32 %154 to i64
  %156 = getelementptr inbounds [1000 x %struct.book], [1000 x %struct.book]* %8, i64 0, i64 %155
  %157 = getelementptr inbounds %struct.book, %struct.book* %156, i32 0, i32 0
  %158 = load i32, i32* %157, align 16
  %159 = call i32 (i8*, ...) @printf(i8* getelementptr inbounds ([4 x i8], [4 x i8]* @.str.3, i64 0, i64 0), i32 %158)
  br label %160

160:                                              ; preds = %153, %141
  br label %161

161:                                              ; preds = %160
  %162 = load i32, i32* %3, align 4
  %163 = add nsw i32 %162, 1
  store i32 %163, i32* %3, align 4
  br label %137

164:                                              ; preds = %137
  br label %165

165:                                              ; preds = %164
  %166 = load i32, i32* %2, align 4
  %167 = add nsw i32 %166, 1
  store i32 %167, i32* %2, align 4
  br label %125

168:                                              ; preds = %125
  ret void
}

declare dso_local i32 @__isoc99_scanf(i8*, ...) #1

; Function Attrs: nounwind readonly
declare dso_local i64 @strlen(i8*) #2

declare dso_local i32 @printf(i8*, ...) #1


!llvm.module.flags = !{!0}
!llvm.ident = !{!1}

!0 = !{i32 1, !"wchar_size", i32 4}
!1 = !{!"clang version 10.0.0-4ubuntu1 "}
